(dp0
S'Recorder'
p1
(dp2
S'Order'
p3
I2
sS'CreationReferences'
p4
(dp5
S'Memory'
p6
S'Memory'
p7
ssS'Class'
p8
S'Clicker'
p9
sS'File'
p10
S'PointRecorder'
p11
sS'ExternalParameters'
p12
(dp13
ssS'Reader'
p14
(dp15
g3
I0
sg4
(dp16
sg8
S'Reader'
p17
sg10
S'StreamReader'
p18
sg12
(dp19
S'_SaveStream'
p20
I01
sssS'Memory'
p21
(dp22
g3
I1
sg4
(dp23
sg8
S'Memory'
p24
sg10
g24
sg12
(dp25
ss.