(dp0
S'Recorder'
p1
(dp2
S'ExternalParameters'
p3
(dp4
sS'CreationReferences'
p5
(dp6
S'Memory'
p7
S'Memory'
p8
ssS'Class'
p9
S'Clicker'
p10
sS'File'
p11
S'PointRecorder'
p12
sS'Order'
p13
I2
ssS'Memory'
p14
(dp15
g3
(dp16
sg5
(dp17
sg9
S'Memory'
p18
sg11
g18
sg13
I1
ssS'Reader'
p19
(dp20
g3
(dp21
sg5
(dp22
sg9
S'Reader'
p23
sg11
S'StreamReader'
p24
sg13
I0
ss.