(dp0
S'BAF'
p1
(dp2
S'ExternalParameters'
p3
(dp4
sS'CreationReferences'
p5
(dp6
S'Memory'
p7
S'RawMemory'
p8
ssS'Class'
p9
S'ActivityFilter'
p10
sS'File'
p11
g10
sS'Order'
p12
I3
ssS'RawMemory'
p13
(dp14
S'Order'
p15
I2
sS'CreationReferences'
p16
(dp17
sS'Class'
p18
S'Memory'
p19
sS'File'
p20
g19
sS'ExternalParameters'
p21
(dp22
ssS'Display'
p23
(dp24
g15
I4
sg16
(dp25
sg18
S'DisplayHandler'
p26
sg20
g26
sg21
(dp27
ssS'PolKilla'
p28
(dp29
g3
(dp30
sg5
(dp31
sg9
S'PolarityKiller'
p32
sg11
g32
sg12
I1
ssS'Reader'
p33
(dp34
g15
I0
sg16
(dp35
sg18
S'Reader'
p36
sg20
S'StreamReader'
p37
sg21
(dp38
ss.