(dp0
S'SpeedProjectorByBatch'
p1
(dp2
S'InitializationArgs'
p3
(lp4
sS'CreationArgs'
p5
(lp6
sS'Class'
p7
S'Projector'
p8
sS'File'
p9
S'SpeedProjector'
p10
sS'Order'
p11
I2
ssS'Refractory'
p12
(dp13
S'InitializationArgs'
p14
(lp15
(S'Memory'
p16
S'Self'
p17
tp18
asS'CreationArgs'
p19
(lp20
sS'Class'
p21
S'Refractory'
p22
sS'File'
p23
S'RefractoryPeriod'
p24
sS'Order'
p25
I0
ssS'Memory'
p26
(dp27
S'InitializationArgs'
p28
(lp29
(S'Framework'
p30
S'StreamsGeometries'
p31
tp32
a(g30
S'StreamHistory'
p33
tp34
asS'CreationArgs'
p35
(lp36
sS'Class'
p37
g26
sS'File'
p38
g26
sS'Order'
p39
I1
ssS'DisplayHandler'
p40
(dp41
S'InitializationArgs'
p42
(lp43
(S'Framework'
p44
S'StreamsGeometries'
p45
tp46
a(S'Framework'
p47
S'StreamHistory'
p48
tp49
a(S'Framework'
p50
S'ProjectFile'
p51
tp52
asS'CreationArgs'
p53
(lp54
sS'Class'
p55
g40
sS'File'
p56
g40
sS'Order'
p57
I3
ssS'Reader'
p58
(dp59
S'InitializationArgs'
p60
(lp61
sS'CreationArgs'
p62
(lp63
(S'Framework'
p64
S'Self'
p65
g64
tp66
asS'Class'
p67
S'Reader'
p68
sS'File'
p69
S'StreamReader'
p70
ss.