(dp0
S'3DMapper'
p1
(dp2
S'InitializationArgs'
p3
(lp4
sS'CreationArgs'
p5
(lp6
(S'FlowComputer'
p7
S'Self'
p8
S'FlowComputer'
p9
tp10
asS'Class'
p11
S'Map3D'
p12
sS'File'
p13
S'3D_Generator'
p14
sS'Order'
p15
I5
ssS'Memory'
p16
(dp17
S'InitializationArgs'
p18
(lp19
(S'Framework'
p20
S'StreamsGeometries'
p21
tp22
a(g20
S'StreamHistory'
p23
tp24
asS'CreationArgs'
p25
(lp26
sS'Class'
p27
g16
sS'File'
p28
g16
sS'Order'
p29
I2
ssS'FlowComputer'
p30
(dp31
g18
(lp32
(S'Framework'
p33
S'StreamsGeometries'
p34
tp35
a(g33
S'StreamHistory'
p36
tp37
a(S'Memory'
p38
S'STContext'
p39
tp40
asg25
(lp41
sg27
g30
sg28
g30
sg29
I4
ssS'Reader'
p42
(dp43
g18
(lp44
sg25
(lp45
(S'Framework'
p46
S'Self'
p47
g46
tp48
asg27
g42
sg28
S'StreamReader'
p49
ssS'Ref'
p50
(dp51
g18
(lp52
(g16
S'Self'
p53
tp54
asg25
(lp55
sg27
S'Refractory'
p56
sg28
S'RefractoryPeriod'
p57
sg29
I1
ssS'Display'
p58
(dp59
g18
(lp60
(S'Framework'
p61
S'StreamsGeometries'
p62
tp63
a(g61
S'StreamHistory'
p64
tp65
a(g61
S'ProjectFile'
p66
tp67
asg25
(lp68
sg27
S'DisplayHandler'
p69
sg28
g69
sg29
I3
ss.