(dp0
S'Mem'
p1
(dp2
S'Class'
p3
S'Memory'
p4
sS'ExternalParameters'
p5
(dp6
sS'Order'
p7
I2
sS'File'
p8
g4
sS'CreationReferences'
p9
(dp10
ssS'Refractory'
p11
(dp12
g3
S'Refractory'
p13
sg5
(dp14
sg7
I1
sg8
S'RefractoryPeriod'
p15
sg9
(dp16
S'Memory'
p17
S'Mem'
p18
sssS'SP'
p19
(dp20
S'ExternalParameters'
p21
(dp22
sS'CreationReferences'
p23
(dp24
S'Memory'
p25
S'Mem'
p26
ssS'Class'
p27
S'LocalProjector'
p28
sS'File'
p29
S'SpeedProjector'
p30
sS'Order'
p31
I4
ssS'Display'
p32
(dp33
g3
S'DisplayHandler'
p34
sg5
(dp35
sg7
I3
sg8
g34
sg9
(dp36
ssS'Reader'
p37
(dp38
g3
S'Reader'
p39
sg5
(dp40
sg7
I0
sg8
S'StreamReader'
p41
sg9
(dp42
ss.