(dp0
S'Mem'
p1
(dp2
S'ExternalParameters'
p3
(dp4
sS'CreationReferences'
p5
(dp6
sS'Class'
p7
S'Memory'
p8
sS'File'
p9
g8
sS'Order'
p10
I1
ssS'Killer'
p11
(dp12
g3
(dp13
sg5
(dp14
S'Memory'
p15
S'Killer'
p16
ssg7
S'PixelKiller'
p17
sg9
g17
sg10
I3
ssS'Display'
p18
(dp19
g3
(dp20
sg5
(dp21
sg7
S'DisplayHandler'
p22
sg9
g22
sg10
I4
ssS'Reader'
p23
(dp24
g3
(dp25
sg5
(dp26
sg7
S'Reader'
p27
sg9
S'StreamReader'
p28
sg10
I0
ss.