(dp0
S'RawMemory'
p1
(dp2
S'Order'
p3
I2
sS'CreationReferences'
p4
(dp5
sS'Class'
p6
S'Memory'
p7
sS'File'
p8
g7
sS'ExternalParameters'
p9
(dp10
ssS'Ref'
p11
(dp12
S'ExternalParameters'
p13
(dp14
sS'CreationReferences'
p15
(dp16
S'Memory'
p17
S'RawMemory'
p18
ssS'Class'
p19
S'Refractory'
p20
sS'File'
p21
S'RefractoryPeriod'
p22
sS'Order'
p23
I1
ssS'Display'
p24
(dp25
g3
I3
sg4
(dp26
sg6
S'DisplayHandler'
p27
sg8
g27
sg9
(dp28
ssS'Reader'
p29
(dp30
g3
I0
sg4
(dp31
sg6
S'Reader'
p32
sg8
S'StreamReader'
p33
sg9
(dp34
ss.
