(dp0
S'RawMemory'
p1
(dp2
S'ExternalParameters'
p3
(dp4
sS'CreationReferences'
p5
(dp6
sS'Class'
p7
S'Memory'
p8
sS'File'
p9
g8
sS'Order'
p10
I1
ssS'Display'
p11
(dp12
g3
(dp13
sg5
(dp14
sg7
S'DisplayHandler'
p15
sg9
g15
sg10
I2
ssS'Reader'
p16
(dp17
g3
(dp18
sg5
(dp19
sg7
S'Reader'
p20
sg9
S'StreamReader'
p21
sg10
I0
ss.