(dp0
S'RawMemory'
p1
(dp2
S'Order'
p3
I1
sS'CreationReferences'
p4
(dp5
sS'Class'
p6
S'Memory'
p7
sS'File'
p8
g7
sS'ExternalParameters'
p9
(dp10
ssS'Display'
p11
(dp12
g3
I2
sg4
(dp13
sg6
S'DisplayHandler'
p14
sg8
g14
sg9
(dp15
ssS'Reader'
p16
(dp17
g3
I0
sg4
(dp18
sg6
S'Reader'
p19
sg8
S'StreamReader'
p20
sg9
(dp21
S'_SaveStream'
p22
I01
sss.