(dp0
S'Mem'
p1
(dp2
S'ExternalParameters'
p3
(dp4
sS'CreationReferences'
p5
(dp6
sS'Class'
p7
S'Memory'
p8
sS'File'
p9
g8
sS'Order'
p10
I2
ssS'Refractory'
p11
(dp12
g3
(dp13
sg5
(dp14
S'Memory'
p15
S'Mem'
p16
ssg7
S'Refractory'
p17
sg9
S'RefractoryPeriod'
p18
sg10
I1
ssS'SP'
p19
(dp20
g3
(dp21
sg5
(dp22
sg7
S'Projector'
p23
sg9
S'SpeedProjector'
p24
sg10
I4
ssS'Display'
p25
(dp26
g3
(dp27
sg5
(dp28
sg7
S'DisplayHandler'
p29
sg9
g29
sg10
I3
ssS'Reader'
p30
(dp31
g3
(dp32
sg5
(dp33
sg7
S'Reader'
p34
sg9
S'StreamReader'
p35
sg10
I0
ss.