(dp0
S'SpeedProjectorByBatch'
p1
(dp2
S'InitializationArgs'
p3
(lp4
sS'CreationArgs'
p5
(lp6
sS'Class'
p7
S'Projector'
p8
sS'File'
p9
S'SpeedProjector'
p10
sS'Order'
p11
I1
ssS'Reader'
p12
(dp13
S'InitializationArgs'
p14
(lp15
sS'CreationArgs'
p16
(lp17
(S'Framework'
p18
S'Self'
p19
g18
tp20
asS'Class'
p21
S'Reader'
p22
sS'File'
p23
S'StreamReader'
p24
ssS'DisplayHandler'
p25
(dp26
S'InitializationArgs'
p27
(lp28
(S'Framework'
p29
S'StreamsGeometries'
p30
tp31
a(S'Framework'
p32
S'StreamHistory'
p33
tp34
a(S'Framework'
p35
S'ProjectFile'
p36
tp37
asS'CreationArgs'
p38
(lp39
sS'Class'
p40
g25
sS'File'
p41
g25
sS'Order'
p42
I2
ssS'Memory'
p43
(dp44
S'InitializationArgs'
p45
(lp46
(S'Framework'
p47
S'StreamsGeometries'
p48
tp49
a(g47
S'StreamHistory'
p50
tp51
asS'CreationArgs'
p52
(lp53
sS'Class'
p54
g43
sS'File'
p55
g43
sS'Order'
p56
I0
ss.