(dp0
S'Mem'
p1
(dp2
S'Order'
p3
I2
sS'CreationReferences'
p4
(dp5
sS'Class'
p6
S'Memory'
p7
sS'File'
p8
g7
sS'ExternalParameters'
p9
(dp10
ssS'Refractory'
p11
(dp12
g3
I1
sg4
(dp13
S'Memory'
p14
S'Mem'
p15
ssg6
S'Refractory'
p16
sg8
S'RefractoryPeriod'
p17
sg9
(dp18
ssS'SP'
p19
(dp20
g3
I4
sg4
(dp21
sg6
S'ProjectorV4'
p22
sg8
S'SpeedProjector'
p23
sg9
(dp24
ssS'Display'
p25
(dp26
g3
I3
sg4
(dp27
sg6
S'DisplayHandler'
p28
sg8
g28
sg9
(dp29
ssS'Reader'
p30
(dp31
g3
I0
sg4
(dp32
sg6
S'Reader'
p33
sg8
S'StreamReader'
p34
sg9
(dp35
ss.
