(dp0
S'ST'
p1
(dp2
S'_is'
p3
I00
sS'_vl'
p4
(lp5
S'InitializedStrings__with__Points__with__Position'
p6
aS'InitializedStrings__with__Points__with__Angle'
p7
aS'InitializedStrings__with__OuterEnergy'
p8
aS'InitializedStrings__with__TorqueInnerEnergy'
p9
aS'InitializedStrings__with__LenghtInnerEnergy'
p10
asS'_dt'
p11
F0.001
ss.