(dp0
S'Monitor'
p1
(dp2
S'ExternalParameters'
p3
(dp4
sS'CreationReferences'
p5
(dp6
sS'Class'
p7
S'Saver'
p8
sS'File'
p9
S'Datasaver'
p10
sS'Order'
p11
I5
ssS'Mem'
p12
(dp13
S'Order'
p14
I2
sS'CreationReferences'
p15
(dp16
sS'Class'
p17
S'Memory'
p18
sS'File'
p19
g18
sS'ExternalParameters'
p20
(dp21
ssS'ST'
p22
(dp23
g14
I4
sg15
(dp24
S'Memory'
p25
S'Mem'
p26
ssg17
S'Tracker'
p27
sg19
S'SpringTracker'
p28
sg20
(dp29
ssS'Refractory'
p30
(dp31
g14
I1
sg15
(dp32
g25
S'Mem'
p33
ssg17
S'Refractory'
p34
sg19
S'RefractoryPeriod'
p35
sg20
(dp36
ssS'Reader'
p37
(dp38
g14
I0
sg15
(dp39
sg17
S'Reader'
p40
sg19
S'StreamReader'
p41
sg20
(dp42
ssS'Display'
p43
(dp44
g14
I3
sg15
(dp45
sg17
S'DisplayHandler'
p46
sg19
g46
sg20
(dp47
ss.