(dp0
S'Stretcher'
p1
(dp2
S'ExternalParameters'
p3
(dp4
sS'CreationReferences'
p5
(dp6
sS'Class'
p7
S'Stretcher'
p8
sS'File'
p9
S'TimeStretcher'
p10
sS'Order'
p11
I1
ssS'Mem'
p12
(dp13
S'Order'
p14
I3
sS'CreationReferences'
p15
(dp16
sS'Class'
p17
S'Memory'
p18
sS'File'
p19
g18
sS'ExternalParameters'
p20
(dp21
ssS'SP'
p22
(dp23
S'Order'
p24
I5
sS'CreationReferences'
p25
(dp26
S'Memory'
p27
S'Mem'
p28
ssS'Class'
p29
S'LocalProjector'
p30
sS'File'
p31
S'SpeedProjector'
p32
sS'ExternalParameters'
p33
(dp34
ssS'Refractory'
p35
(dp36
g14
I2
sg15
(dp37
S'Memory'
p38
S'Mem'
p39
ssg17
S'Refractory'
p40
sg19
S'RefractoryPeriod'
p41
sg20
(dp42
ssS'Reader'
p43
(dp44
g14
I0
sg15
(dp45
sg17
S'Reader'
p46
sg19
S'StreamReader'
p47
sg20
(dp48
ssS'Display'
p49
(dp50
g14
I4
sg15
(dp51
sg17
S'DisplayHandler'
p52
sg19
g52
sg20
(dp53
ss.