(dp0
S'Recorder'
p1
(dp2
S'Order'
p3
I3
sS'CreationReferences'
p4
(dp5
S'Memory'
p6
S'Memory'
p7
ssS'Class'
p8
S'HoughCD'
p9
sS'File'
p10
S'HoughCornerDetector'
p11
sS'ExternalParameters'
p12
(dp13
ssS'Reader'
p14
(dp15
g3
I0
sg4
(dp16
sg8
S'Reader'
p17
sg10
S'StreamReader'
p18
sg12
(dp19
ssS'Stretcher'
p20
(dp21
S'ExternalParameters'
p22
(dp23
sS'CreationReferences'
p24
(dp25
sS'Class'
p26
S'Stretcher'
p27
sS'File'
p28
S'TimeStretcher'
p29
sS'Order'
p30
I1
ssS'Memory'
p31
(dp32
g3
I2
sg4
(dp33
sg8
S'Memory'
p34
sg10
g34
sg12
(dp35
ss.